; Function Attrs: mustprogress uwtable
define hidden void @_ZN8map_proc11reconstructEP3app(ptr noundef nonnull align 8 dereferenceable(80) %this, ptr noundef %a) local_unnamed_addr #3 align 2 {
entry:
  %result.i = alloca ptr, align 8
  %p.i = alloca ptr, align 8
  %m_args = getelementptr inbounds i8, ptr %this, i64 72
  %0 = load ptr, ptr %m_args, align 8
  %tobool.not.i = icmp eq ptr %0, null
  br i1 %tobool.not.i, label %_ZN6vectorIP4exprLb0EjE5resetEv.exit, label %if.then.i

if.then.i:                                        ; preds = %entry
  %arrayidx.i = getelementptr inbounds i8, ptr %0, i64 -4
  store i32 0, ptr %arrayidx.i, align 4
  br label %_ZN6vectorIP4exprLb0EjE5resetEv.exit

_ZN6vectorIP4exprLb0EjE5resetEv.exit:             ; preds = %entry, %if.then.i
  %m_num_args.i = getelementptr inbounds i8, ptr %a, i64 24
  %1 = load i32, ptr %m_num_args.i, align 8
  %cmp15.not = icmp eq i32 %1, 0
  br i1 %cmp15.not, label %if.else, label %for.body.lr.ph

for.body.lr.ph:                                   ; preds = %_ZN6vectorIP4exprLb0EjE5resetEv.exit
  %m_args.i = getelementptr inbounds i8, ptr %a, i64 32
  %m_map.i = getelementptr inbounds i8, ptr %this, i64 8
  br label %for.body

for.body:                                         ; preds = %for.body.lr.ph, %_ZN6vectorIP4exprLb0EjE9push_backERKS1_.exit
  %indvars.iv = phi i64 [ 0, %for.body.lr.ph ], [ %indvars.iv.next, %_ZN6vectorIP4exprLb0EjE9push_backERKS1_.exit ]
  %is_new.017 = phi i8 [ 0, %for.body.lr.ph ], [ %spec.select, %_ZN6vectorIP4exprLb0EjE9push_backERKS1_.exit ]
  %arrayidx.i9 = getelementptr inbounds [0 x ptr], ptr %m_args.i, i64 0, i64 %indvars.iv
  %2 = load ptr, ptr %arrayidx.i9, align 8
  call void @llvm.lifetime.start.p0(i64 8, ptr nonnull %result.i)
  call void @llvm.lifetime.start.p0(i64 8, ptr nonnull %p.i)
  store ptr null, ptr %result.i, align 8
  store ptr null, ptr %p.i, align 8
  call void @_ZNK8expr_map3getEP4exprRS1_RP3app(ptr noundef nonnull align 8 dereferenceable(64) %m_map.i, ptr noundef %2, ptr noundef nonnull align 8 dereferenceable(8) %result.i, ptr noundef nonnull align 8 dereferenceable(8) %p.i)
  %3 = load ptr, ptr %result.i, align 8
  call void @llvm.lifetime.end.p0(i64 8, ptr nonnull %result.i)
  call void @llvm.lifetime.end.p0(i64 8, ptr nonnull %p.i)
  %4 = load ptr, ptr %m_args, align 8
  %cmp.i = icmp eq ptr %4, null
  br i1 %cmp.i, label %if.then.i11, label %lor.lhs.false.i

lor.lhs.false.i:                                  ; preds = %for.body
  %arrayidx.i10 = getelementptr inbounds i8, ptr %4, i64 -4
  %5 = load i32, ptr %arrayidx.i10, align 4
  %arrayidx4.i = getelementptr inbounds i8, ptr %4, i64 -8
  %6 = load i32, ptr %arrayidx4.i, align 4
  %cmp5.i = icmp eq i32 %5, %6
  br i1 %cmp5.i, label %if.then.i11, label %_ZN6vectorIP4exprLb0EjE9push_backERKS1_.exit

if.then.i11:                                      ; preds = %lor.lhs.false.i, %for.body
  call void @_ZN6vectorIP4exprLb0EjE13expand_vectorEv(ptr noundef nonnull align 8 dereferenceable(8) %m_args)
  %.pre.i = load ptr, ptr %m_args, align 8
  %arrayidx8.phi.trans.insert.i = getelementptr inbounds i8, ptr %.pre.i, i64 -4
  %.pre1.i = load i32, ptr %arrayidx8.phi.trans.insert.i, align 4
  br label %_ZN6vectorIP4exprLb0EjE9push_backERKS1_.exit

_ZN6vectorIP4exprLb0EjE9push_backERKS1_.exit:     ; preds = %lor.lhs.false.i, %if.then.i11
  %7 = phi i32 [ %.pre1.i, %if.then.i11 ], [ %5, %lor.lhs.false.i ]
  %8 = phi ptr [ %.pre.i, %if.then.i11 ], [ %4, %lor.lhs.false.i ]
  %idx.ext.i = zext i32 %7 to i64
  %add.ptr.i = getelementptr inbounds ptr, ptr %8, i64 %idx.ext.i
  store ptr %3, ptr %add.ptr.i, align 8
  %9 = load ptr, ptr %m_args, align 8
  %arrayidx10.i = getelementptr inbounds i8, ptr %9, i64 -4
  %10 = load i32, ptr %arrayidx10.i, align 4
  %inc.i = add i32 %10, 1
  store i32 %inc.i, ptr %arrayidx10.i, align 4
  %cmp6.not = icmp eq ptr %2, %3
  %spec.select = select i1 %cmp6.not, i8 %is_new.017, i8 1
  %indvars.iv.next = add nuw nsw i64 %indvars.iv, 1
  %11 = load i32, ptr %m_num_args.i, align 8
  %12 = zext i32 %11 to i64
  %cmp = icmp ult i64 %indvars.iv.next, %12
  br i1 %cmp, label %for.body, label %for.end, !llvm.loop !8

for.end:                                          ; preds = %_ZN6vectorIP4exprLb0EjE9push_backERKS1_.exit
  %13 = and i8 %spec.select, 1
  %14 = icmp eq i8 %13, 0
  br i1 %14, label %if.else, label %if.then7

if.then7:                                         ; preds = %for.end
  %15 = load ptr, ptr %this, align 8
  %m_decl.i = getelementptr inbounds i8, ptr %a, i64 16
  %16 = load ptr, ptr %m_decl.i, align 8
  %17 = load ptr, ptr %m_args, align 8
  %cmp.i12 = icmp eq ptr %17, null
  br i1 %cmp.i12, label %_ZNK6vectorIP4exprLb0EjE4sizeEv.exit, label %if.end.i

if.end.i:                                         ; preds = %if.then7
  %arrayidx.i13 = getelementptr inbounds i8, ptr %17, i64 -4
  %18 = load i32, ptr %arrayidx.i13, align 4
  br label %_ZNK6vectorIP4exprLb0EjE4sizeEv.exit

_ZNK6vectorIP4exprLb0EjE4sizeEv.exit:             ; preds = %if.then7, %if.end.i
  %retval.0.i = phi i32 [ %18, %if.end.i ], [ 0, %if.then7 ]
  %call13 = call noundef ptr @_ZN11ast_manager6mk_appEP9func_decljPKP4expr(ptr noundef nonnull align 8 dereferenceable(976) %15, ptr noundef %16, i32 noundef %retval.0.i, ptr noundef %17)
  %m_map = getelementptr inbounds i8, ptr %this, i64 8
  call void @_ZN8expr_map6insertEP4exprS1_P3app(ptr noundef nonnull align 8 dereferenceable(64) %m_map, ptr noundef nonnull %a, ptr noundef %call13, ptr noundef null)
  br label %if.end15

if.else:                                          ; preds = %_ZN6vectorIP4exprLb0EjE5resetEv.exit, %for.end
  %m_map14 = getelementptr inbounds i8, ptr %this, i64 8
  call void @_ZN8expr_map6insertEP4exprS1_P3app(ptr noundef nonnull align 8 dereferenceable(64) %m_map14, ptr noundef nonnull %a, ptr noundef nonnull %a, ptr noundef null)
  br label %if.end15

if.end15:                                         ; preds = %if.else, %_ZNK6vectorIP4exprLb0EjE4sizeEv.exit
  ret void
}